target datalayout = "e-m:e-p270:32:32-p271:32:32-p272:64:64-i64:64-i128:128-f80:128-n8:16:32:64-S128"
target triple = "x86_64-pc-linux-gnu"

; Function Attrs: mustprogress uwtable
define hidden void @_ZN2cv4IPPE10PoseSolver22sortPosesByReprojErrorERKNS_11_InputArrayES4_S4_S4_RKNS_12_OutputArrayES7_RfS8_(ptr noundef nonnull align 8 dereferenceable(8) %0, ptr noundef nonnull align 8 dereferenceable(24) %1, ptr noundef nonnull align 8 dereferenceable(24) %2, ptr noundef nonnull align 8 dereferenceable(24) %3, ptr noundef nonnull align 8 dereferenceable(24) %4, ptr noundef nonnull align 8 dereferenceable(24) %5, ptr noundef nonnull align 8 dereferenceable(24) %6, ptr noundef nonnull align 4 dereferenceable(4) %7, ptr noundef nonnull align 4 dereferenceable(4) %8) #5 align 2 {
  %10 = alloca ptr, align 8
  %11 = alloca ptr, align 8
  %12 = alloca ptr, align 8
  %13 = alloca ptr, align 8
  %14 = alloca ptr, align 8
  %15 = alloca ptr, align 8
  %16 = alloca ptr, align 8
  %17 = alloca ptr, align 8
  %18 = alloca ptr, align 8
  %19 = alloca float, align 4
  %20 = alloca float, align 4
  store ptr %0, ptr %10, align 8, !tbaa !3
  store ptr %1, ptr %11, align 8, !tbaa !11
  store ptr %2, ptr %12, align 8, !tbaa !11
  store ptr %3, ptr %13, align 8, !tbaa !11
  store ptr %4, ptr %14, align 8, !tbaa !11
  store ptr %5, ptr %15, align 8, !tbaa !13
  store ptr %6, ptr %16, align 8, !tbaa !13
  store ptr %7, ptr %17, align 8, !tbaa !15
  store ptr %8, ptr %18, align 8, !tbaa !15
  %21 = load ptr, ptr %10, align 8
  call void @llvm.lifetime.start.p0(i64 4, ptr %19) #3
  call void @llvm.lifetime.start.p0(i64 4, ptr %20) #3
  %22 = load ptr, ptr %11, align 8, !tbaa !11
  %23 = load ptr, ptr %12, align 8, !tbaa !11
  %24 = load ptr, ptr %13, align 8, !tbaa !11
  call void @_ZN2cv4IPPE10PoseSolver15evalReprojErrorERKNS_11_InputArrayES4_S4_Rf(ptr noundef nonnull align 8 dereferenceable(8) %21, ptr noundef nonnull align 8 dereferenceable(24) %22, ptr noundef nonnull align 8 dereferenceable(24) %23, ptr noundef nonnull align 8 dereferenceable(24) %24, ptr noundef nonnull align 4 dereferenceable(4) %19)
  %25 = load ptr, ptr %11, align 8, !tbaa !11
  %26 = load ptr, ptr %12, align 8, !tbaa !11
  %27 = load ptr, ptr %14, align 8, !tbaa !11
  call void @_ZN2cv4IPPE10PoseSolver15evalReprojErrorERKNS_11_InputArrayES4_S4_Rf(ptr noundef nonnull align 8 dereferenceable(8) %21, ptr noundef nonnull align 8 dereferenceable(24) %25, ptr noundef nonnull align 8 dereferenceable(24) %26, ptr noundef nonnull align 8 dereferenceable(24) %27, ptr noundef nonnull align 4 dereferenceable(4) %20)
  %28 = load float, ptr %19, align 4, !tbaa !35
  %29 = load float, ptr %20, align 4, !tbaa !35
  %30 = fcmp olt float %28, %29
  br i1 %30, label %31, label %40

31:                                               ; preds = %9
  %32 = load float, ptr %19, align 4, !tbaa !35
  %33 = load ptr, ptr %17, align 8, !tbaa !15
  store float %32, ptr %33, align 4, !tbaa !35
  %34 = load ptr, ptr %13, align 8, !tbaa !11
  %35 = load ptr, ptr %15, align 8, !tbaa !13
  call void @_ZNK2cv11_InputArray6copyToERKNS_12_OutputArrayE(ptr noundef nonnull align 8 dereferenceable(24) %34, ptr noundef nonnull align 8 dereferenceable(24) %35)
  %36 = load float, ptr %20, align 4, !tbaa !35
  %37 = load ptr, ptr %18, align 8, !tbaa !15
  store float %36, ptr %37, align 4, !tbaa !35
  %38 = load ptr, ptr %14, align 8, !tbaa !11
  %39 = load ptr, ptr %16, align 8, !tbaa !13
  call void @_ZNK2cv11_InputArray6copyToERKNS_12_OutputArrayE(ptr noundef nonnull align 8 dereferenceable(24) %38, ptr noundef nonnull align 8 dereferenceable(24) %39)
  br label %49

40:                                               ; preds = %9
  %41 = load float, ptr %20, align 4, !tbaa !35
  %42 = load ptr, ptr %17, align 8, !tbaa !15
  store float %41, ptr %42, align 4, !tbaa !35
  %43 = load ptr, ptr %14, align 8, !tbaa !11
  %44 = load ptr, ptr %15, align 8, !tbaa !13
  call void @_ZNK2cv11_InputArray6copyToERKNS_12_OutputArrayE(ptr noundef nonnull align 8 dereferenceable(24) %43, ptr noundef nonnull align 8 dereferenceable(24) %44)
  %45 = load float, ptr %19, align 4, !tbaa !35
  %46 = load ptr, ptr %18, align 8, !tbaa !15
  store float %45, ptr %46, align 4, !tbaa !35
  %47 = load ptr, ptr %13, align 8, !tbaa !11
  %48 = load ptr, ptr %16, align 8, !tbaa !13
  call void @_ZNK2cv11_InputArray6copyToERKNS_12_OutputArrayE(ptr noundef nonnull align 8 dereferenceable(24) %47, ptr noundef nonnull align 8 dereferenceable(24) %48)
  br label %49

49:                                               ; preds = %40, %31
  call void @llvm.lifetime.end.p0(i64 4, ptr %20) #3
  call void @llvm.lifetime.end.p0(i64 4, ptr %19) #3
  ret void
}