; Function Attrs: mustprogress uwtable
define hidden void @_ZN2cv4IPPE10PoseSolver22sortPosesByReprojErrorERKNS_11_InputArrayES4_S4_S4_RKNS_12_OutputArrayES7_RfS8_(ptr noundef nonnull readnone align 8 captures(none) dereferenceable(8) %0, ptr noundef nonnull align 8 dereferenceable(24) %1, ptr noundef nonnull align 8 dereferenceable(24) %2, ptr noundef nonnull align 8 dereferenceable(24) %3, ptr noundef nonnull align 8 dereferenceable(24) %4, ptr noundef nonnull align 8 dereferenceable(24) %5, ptr noundef nonnull align 8 dereferenceable(24) %6, ptr noundef nonnull writeonly align 4 captures(none) dereferenceable(4) initializes((0, 4)) %7, ptr noundef nonnull writeonly align 4 captures(none) dereferenceable(4) initializes((0, 4)) %8) local_unnamed_addr #4 align 2 {
  %10 = alloca float, align 4
  %11 = alloca float, align 4
  call void @llvm.lifetime.start.p0(i64 4, ptr nonnull %10) #19
  call void @llvm.lifetime.start.p0(i64 4, ptr nonnull %11) #19
  call void @_ZN2cv4IPPE10PoseSolver15evalReprojErrorERKNS_11_InputArrayES4_S4_Rf(ptr nonnull align 8 poison, ptr noundef nonnull align 8 dereferenceable(24) %1, ptr noundef nonnull align 8 dereferenceable(24) %2, ptr noundef nonnull align 8 dereferenceable(24) %3, ptr noundef nonnull align 4 dereferenceable(4) %10)
  call void @_ZN2cv4IPPE10PoseSolver15evalReprojErrorERKNS_11_InputArrayES4_S4_Rf(ptr nonnull align 8 poison, ptr noundef nonnull align 8 dereferenceable(24) %1, ptr noundef nonnull align 8 dereferenceable(24) %2, ptr noundef nonnull align 8 dereferenceable(24) %4, ptr noundef nonnull align 4 dereferenceable(4) %11)
  %12 = load float, ptr %10, align 4, !tbaa !34
  %13 = load float, ptr %11, align 4, !tbaa !34
  %14 = fcmp olt float %12, %13
  %. = select i1 %14, float %12, float %13
  %.23 = select i1 %14, ptr %3, ptr %4
  %.24 = select i1 %14, float %13, float %12
  %.25 = select i1 %14, ptr %4, ptr %3
  store float %., ptr %7, align 4, !tbaa !34
  tail call void @_ZNK2cv11_InputArray6copyToERKNS_12_OutputArrayE(ptr noundef nonnull align 8 dereferenceable(24) %.23, ptr noundef nonnull align 8 dereferenceable(24) %5)
  store float %.24, ptr %8, align 4, !tbaa !34
  tail call void @_ZNK2cv11_InputArray6copyToERKNS_12_OutputArrayE(ptr noundef nonnull align 8 dereferenceable(24) %.25, ptr noundef nonnull align 8 dereferenceable(24) %6)
  call void @llvm.lifetime.end.p0(i64 4, ptr nonnull %11) #19
  call void @llvm.lifetime.end.p0(i64 4, ptr nonnull %10) #19
  ret void
}